#include <math.h>
#include <stdio.h>
#include <stdlib.h>
#include <string.h>

int main()
{
	char s[105],t[105]={'\0'};
	int i,j=0,k=0,n,m;

	gets(s);
	n=strlen(s);		
	for(i=0;i<n;i++)
	{
		if(s[i]==' '&&s[i-1]==' ')
		{
			k++;	
		}
		if(k<1)
		{
			t[j]=s[i];
			j++;
		}
		k=0;	
	}	
	m=strlen(t);
	for(i=0;i<m;i++)
	printf("%c",(int)t[i]);
	return 0;
}